; Function Attrs: mustprogress uwtable
define internal void @_ZL20DOCTEST_ANON_FUNC_20v() #3 personality ptr @__gxx_personality_v0 {
  %1 = alloca %"class.doctest::String", align 8
  %2 = alloca %"struct.doctest::detail::ResultBuilder", align 8
  %3 = alloca %"class.doctest::String", align 8
  %4 = alloca %"class.std::__cxx11::basic_string", align 8
  %5 = alloca %"class.std::__cxx11::basic_string", align 8
  call void @_ZN7doctest6StringC1EPKc(ptr noundef nonnull align 8 dereferenceable(24) %3, ptr noundef nonnull @.str)
  invoke void @_ZN7doctest6detail13ResultBuilderC1ENS_10assertType4EnumEPKciS5_S5_RKNS_6StringE(ptr noundef nonnull align 8 dereferenceable(144) %2, i32 noundef 1034, ptr noundef nonnull @.str.56, i32 noundef 406, ptr noundef nonnull @.str.198, ptr noundef nonnull @.str, ptr noundef nonnull align 8 dereferenceable(24) %3)
          to label %6 unwind label %23

6:                                                ; preds = %0
  call void @_ZN7doctest6StringD1Ev(ptr noundef nonnull align 8 dereferenceable(24) %3) #16
  invoke fastcc void @_ZL18getCodegenAssemblyB5cxx11PKcbi(ptr dead_on_unwind noalias nonnull writable align 8 %5, ptr noundef nonnull @.str.199, i1 noundef zeroext false, i32 noundef 1)
          to label %7 unwind label %25

7:                                                ; preds = %6
  %8 = invoke noundef nonnull align 8 dereferenceable(32) ptr @_ZNSt7__cxx1112basic_stringIcSt11char_traitsIcESaIcEE6insertEmPKc(ptr noundef nonnull align 8 dereferenceable(32) %5, i64 noundef 0, ptr noundef nonnull @.str.152)
          to label %9 unwind label %27

9:                                                ; preds = %7
  call void @_ZNSt7__cxx1112basic_stringIcSt11char_traitsIcESaIcEEC1EOS4_(ptr noundef nonnull align 8 dereferenceable(32) %4, ptr noundef nonnull align 8 dereferenceable(32) %8) #16
  call void @llvm.lifetime.start.p0(i64 24, ptr nonnull %1)
  %10 = call noundef i32 @_ZNKSt7__cxx1112basic_stringIcSt11char_traitsIcESaIcEE7compareEPKc(ptr noundef nonnull align 8 dereferenceable(32) %4, ptr noundef nonnull @.str.200) #16
  %11 = icmp ne i32 %10, 0
  %12 = getelementptr inbounds i8, ptr %2, i64 40
  %13 = zext i1 %11 to i8
  store i8 %13, ptr %12, align 8
  br i1 %11, label %19, label %14

14:                                               ; preds = %9
  %15 = invoke noundef ptr @_ZN7doctest17getContextOptionsEv()
          to label %.noexc unwind label %29

.noexc:                                           ; preds = %14
  %16 = getelementptr inbounds i8, ptr %15, i64 108
  %17 = load i8, ptr %16, align 4
  %18 = trunc i8 %17 to i1
  br i1 %18, label %19, label %22

19:                                               ; preds = %.noexc, %9
  invoke void @_ZN7doctest6detail19stringifyBinaryExprINSt7__cxx1112basic_stringIcSt11char_traitsIcESaIcEEEA451_cEENS_6StringERKT_PKcRKT0_(ptr dead_on_unwind nonnull writable sret(%"class.doctest::String") align 8 %1, ptr noundef nonnull align 8 dereferenceable(32) %4, ptr noundef nonnull @.str.155, ptr noundef nonnull align 1 dereferenceable(451) @.str.200)
          to label %.noexc7 unwind label %29

.noexc7:                                          ; preds = %19
  %20 = getelementptr inbounds i8, ptr %2, i64 72
  %21 = call noundef nonnull align 8 dereferenceable(24) ptr @_ZN7doctest6StringaSEOS0_(ptr noundef nonnull align 8 dereferenceable(24) %20, ptr noundef nonnull align 8 dereferenceable(24) %1) #16
  call void @_ZN7doctest6StringD1Ev(ptr noundef nonnull align 8 dereferenceable(24) %1) #16
  br label %22

22:                                               ; preds = %.noexc7, %.noexc
  call void @llvm.lifetime.end.p0(i64 24, ptr nonnull %1)
  call void @_ZNSt7__cxx1112basic_stringIcSt11char_traitsIcESaIcEED1Ev(ptr noundef nonnull align 8 dereferenceable(32) %4) #16
  call void @_ZNSt7__cxx1112basic_stringIcSt11char_traitsIcESaIcEED1Ev(ptr noundef nonnull align 8 dereferenceable(32) %5) #16
  br label %35

23:                                               ; preds = %0
  %24 = landingpad { ptr, i32 }
          cleanup
  call void @_ZN7doctest6StringD1Ev(ptr noundef nonnull align 8 dereferenceable(24) %3) #16
  br label %49

25:                                               ; preds = %6
  %26 = landingpad { ptr, i32 }
          catch ptr null
  br label %32

27:                                               ; preds = %7
  %28 = landingpad { ptr, i32 }
          catch ptr null
  br label %31

29:                                               ; preds = %19, %14
  %30 = landingpad { ptr, i32 }
          catch ptr null
  call void @_ZNSt7__cxx1112basic_stringIcSt11char_traitsIcESaIcEED1Ev(ptr noundef nonnull align 8 dereferenceable(32) %4) #16
  br label %31

31:                                               ; preds = %29, %27
  %.pn = phi { ptr, i32 } [ %30, %29 ], [ %28, %27 ]
  call void @_ZNSt7__cxx1112basic_stringIcSt11char_traitsIcESaIcEED1Ev(ptr noundef nonnull align 8 dereferenceable(32) %5) #16
  br label %32

32:                                               ; preds = %31, %25
  %.pn.pn = phi { ptr, i32 } [ %.pn, %31 ], [ %26, %25 ]
  %.13 = extractvalue { ptr, i32 } %.pn.pn, 0
  %33 = call ptr @__cxa_begin_catch(ptr %.13) #16
  invoke void @_ZN7doctest6detail13ResultBuilder18translateExceptionEv(ptr noundef nonnull align 8 dereferenceable(144) %2)
          to label %34 unwind label %39

34:                                               ; preds = %32
  invoke void @__cxa_end_catch()
          to label %35 unwind label %41

35:                                               ; preds = %34, %22
  %36 = invoke noundef zeroext i1 @_ZN7doctest6detail13ResultBuilder3logEv(ptr noundef nonnull align 8 dereferenceable(144) %2)
          to label %37 unwind label %41

37:                                               ; preds = %35
  br i1 %36, label %38, label %43

38:                                               ; preds = %37
  call void asm sideeffect "int $$3\0A", "~{dirflag},~{fpsr},~{flags}"() #16, !srcloc !13
  br label %43

39:                                               ; preds = %32
  %40 = landingpad { ptr, i32 }
          cleanup
  invoke void @__cxa_end_catch()
          to label %48 unwind label %50

41:                                               ; preds = %43, %35, %34
  %42 = landingpad { ptr, i32 }
          cleanup
  br label %48

43:                                               ; preds = %38, %37
  invoke void @_ZNK7doctest6detail13ResultBuilder5reactEv(ptr noundef nonnull align 8 dereferenceable(144) %2)
          to label %44 unwind label %41

44:                                               ; preds = %43
  %45 = getelementptr inbounds i8, ptr %2, i64 112
  call void @_ZN7doctest6StringD1Ev(ptr noundef nonnull align 8 dereferenceable(24) %45) #16
  %46 = getelementptr inbounds i8, ptr %2, i64 72
  call void @_ZN7doctest6StringD1Ev(ptr noundef nonnull align 8 dereferenceable(24) %46) #16
  %47 = getelementptr inbounds i8, ptr %2, i64 48
  call void @_ZN7doctest6StringD1Ev(ptr noundef nonnull align 8 dereferenceable(24) %47) #16
  ret void

48:                                               ; preds = %39, %41
  %.pn4 = phi { ptr, i32 } [ %42, %41 ], [ %40, %39 ]
  call void @_ZN7doctest6detail13ResultBuilderD2Ev(ptr noundef nonnull align 8 dereferenceable(144) %2) #16
  br label %49

49:                                               ; preds = %48, %23
  %.pn4.pn = phi { ptr, i32 } [ %.pn4, %48 ], [ %24, %23 ]
  resume { ptr, i32 } %.pn4.pn

50:                                               ; preds = %39
  %51 = landingpad { ptr, i32 }
          catch ptr null
  %52 = extractvalue { ptr, i32 } %51, 0
  call void @__clang_call_terminate(ptr %52) #17
  unreachable
}